; Function Attrs: nounwind uwtable
define dso_local void @RemoveStatisticsById(i32 noundef %0) local_unnamed_addr #0 {
  %2 = tail call ptr @table_open(i32 noundef 3381, i32 noundef 3) #10
  %3 = zext i32 %0 to i64
  %4 = tail call ptr @SearchSysCache1(i32 noundef 64, i64 noundef %3) #10
  %.not = icmp eq ptr %4, null
  br i1 %.not, label %5, label %8

5:                                                ; preds = %1
  %6 = tail call zeroext i1 @errstart_cold(i32 noundef 21, ptr noundef null) #11
  tail call void @llvm.assume(i1 %6)
  %7 = tail call i32 (ptr, ...) @errmsg_internal(ptr noundef nonnull @.str.26, i32 noundef %0) #10
  tail call void @errfinish(ptr noundef nonnull @.str.1, i32 noundef 782, ptr noundef nonnull @__func__.RemoveStatisticsById) #10
  unreachable

8:                                                ; preds = %1
  %9 = getelementptr i8, ptr %4, i64 16
  %.val = load ptr, ptr %9, align 8
  %10 = getelementptr inbounds nuw i8, ptr %.val, i64 22
  %11 = load i8, ptr %10, align 2
  %12 = zext i8 %11 to i64
  %13 = getelementptr inbounds nuw i8, ptr %.val, i64 %12
  %14 = getelementptr inbounds nuw i8, ptr %13, i64 4
  %15 = load i32, ptr %14, align 4
  %16 = tail call ptr @table_open(i32 noundef %15, i32 noundef 4) #10
  %17 = tail call ptr @table_open(i32 noundef 3429, i32 noundef 3) #10
  %18 = tail call ptr @SearchSysCache2(i32 noundef 62, i64 noundef %3, i64 noundef 1) #10
  %.not.i = icmp eq ptr %18, null
  br i1 %.not.i, label %RemoveStatisticsDataById.exit, label %19

19:                                               ; preds = %8
  %20 = getelementptr inbounds nuw i8, ptr %18, i64 4
  tail call void @CatalogTupleDelete(ptr noundef %17, ptr noundef nonnull %20) #10
  tail call void @ReleaseSysCache(ptr noundef nonnull %18) #10
  br label %RemoveStatisticsDataById.exit

RemoveStatisticsDataById.exit:                    ; preds = %8, %19
  tail call void @table_close(ptr noundef %17, i32 noundef 3) #10
  %21 = tail call ptr @table_open(i32 noundef 3429, i32 noundef 3) #10
  %22 = tail call ptr @SearchSysCache2(i32 noundef 62, i64 noundef %3, i64 noundef 0) #10
  %.not.i13 = icmp eq ptr %22, null
  br i1 %.not.i13, label %RemoveStatisticsDataById.exit14, label %23

23:                                               ; preds = %RemoveStatisticsDataById.exit
  %24 = getelementptr inbounds nuw i8, ptr %22, i64 4
  tail call void @CatalogTupleDelete(ptr noundef %21, ptr noundef nonnull %24) #10
  tail call void @ReleaseSysCache(ptr noundef nonnull %22) #10
  br label %RemoveStatisticsDataById.exit14

RemoveStatisticsDataById.exit14:                  ; preds = %RemoveStatisticsDataById.exit, %23
  tail call void @table_close(ptr noundef %21, i32 noundef 3) #10
  tail call void @CacheInvalidateRelcacheByRelid(i32 noundef %15) #10
  %25 = getelementptr inbounds nuw i8, ptr %4, i64 4
  tail call void @CatalogTupleDelete(ptr noundef %2, ptr noundef nonnull %25) #10
  tail call void @ReleaseSysCache(ptr noundef nonnull %4) #10
  tail call void @table_close(ptr noundef %16, i32 noundef 0) #10
  tail call void @table_close(ptr noundef %2, i32 noundef 3) #10
  ret void
}